target datalayout = "e-m:e-p270:32:32-p271:32:32-p272:64:64-i64:64-i128:128-f80:128-n8:16:32:64-S128"
target triple = "x86_64-pc-linux-gnu"

%"class.YAML::EmitterState" = type { i8, %"class.std::__cxx11::basic_string", %"class.YAML::Setting", %"class.YAML::Setting", %"class.YAML::Setting", %"class.YAML::Setting", %"class.YAML::Setting", %"class.YAML::Setting", %"class.YAML::Setting", %"class.YAML::Setting.0", %"class.YAML::Setting.0", %"class.YAML::Setting.0", %"class.YAML::Setting", %"class.YAML::Setting", %"class.YAML::Setting", %"class.YAML::Setting.0", %"class.YAML::Setting.0", %"class.YAML::SettingChanges", %"class.YAML::SettingChanges", %"class.std::vector.4", i64, i8, i8, i8, i8, i64 }
%"class.std::__cxx11::basic_string" = type { %"struct.std::__cxx11::basic_string<char>::_Alloc_hider", i64, %union.anon }
%"struct.std::__cxx11::basic_string<char>::_Alloc_hider" = type { ptr }
%union.anon = type { i64, [8 x i8] }
%"class.YAML::Setting" = type { i32 }
%"class.YAML::Setting.0" = type { i64 }
%"class.YAML::SettingChanges" = type { %"class.std::vector" }
%"class.std::vector" = type { %"struct.std::_Vector_base" }
%"struct.std::_Vector_base" = type { %"struct.std::_Vector_base<std::unique_ptr<YAML::SettingChangeBase>, std::allocator<std::unique_ptr<YAML::SettingChangeBase>>>::_Vector_impl" }
%"struct.std::_Vector_base<std::unique_ptr<YAML::SettingChangeBase>, std::allocator<std::unique_ptr<YAML::SettingChangeBase>>>::_Vector_impl" = type { %"struct.std::_Vector_base<std::unique_ptr<YAML::SettingChangeBase>, std::allocator<std::unique_ptr<YAML::SettingChangeBase>>>::_Vector_impl_data" }
%"struct.std::_Vector_base<std::unique_ptr<YAML::SettingChangeBase>, std::allocator<std::unique_ptr<YAML::SettingChangeBase>>>::_Vector_impl_data" = type { ptr, ptr, ptr }
%"class.std::vector.4" = type { %"struct.std::_Vector_base.5" }
%"struct.std::_Vector_base.5" = type { %"struct.std::_Vector_base<std::unique_ptr<YAML::EmitterState::Group>, std::allocator<std::unique_ptr<YAML::EmitterState::Group>>>::_Vector_impl" }
%"struct.std::_Vector_base<std::unique_ptr<YAML::EmitterState::Group>, std::allocator<std::unique_ptr<YAML::EmitterState::Group>>>::_Vector_impl" = type { %"struct.std::_Vector_base<std::unique_ptr<YAML::EmitterState::Group>, std::allocator<std::unique_ptr<YAML::EmitterState::Group>>>::_Vector_impl_data" }
%"struct.std::_Vector_base<std::unique_ptr<YAML::EmitterState::Group>, std::allocator<std::unique_ptr<YAML::EmitterState::Group>>>::_Vector_impl_data" = type { ptr, ptr, ptr }
%"struct.YAML::EmitterState::Group" = type { i32, i32, i64, i64, i8, %"class.YAML::SettingChanges" }
%"class.__gnu_cxx::__normal_iterator.20" = type { ptr }
%"class.__gnu_cxx::__normal_iterator.21" = type { ptr }
%"class.std::unique_ptr" = type { %"struct.std::__uniq_ptr_data" }
%"struct.std::__uniq_ptr_data" = type { %"class.std::__uniq_ptr_impl" }
%"class.std::__uniq_ptr_impl" = type { %"class.std::tuple" }
%"class.std::tuple" = type { %"struct.std::_Tuple_impl" }
%"struct.std::_Tuple_impl" = type { %"struct.std::_Head_base.10" }
%"struct.std::_Head_base.10" = type { ptr }

; Function Attrs: mustprogress nounwind uwtable
define linkonce_odr noundef nonnull align 8 dereferenceable(8) ptr @_ZNSt10_Head_baseILm0EPN4YAML12EmitterState5GroupELb0EE7_M_headERKS4_(ptr noundef nonnull align 8 dereferenceable(8) %0) #1 comdat align 2 {
  %2 = alloca ptr, align 8
  store ptr %0, ptr %2, align 8, !tbaa !136
  %3 = load ptr, ptr %2, align 8, !tbaa !136
  %4 = getelementptr inbounds nuw %"struct.std::_Head_base.10", ptr %3, i32 0, i32 0
  ret ptr %4
}

; Function Attrs: mustprogress nounwind uwtable
define linkonce_odr noundef nonnull align 8 dereferenceable(8) ptr @_ZNSt11_Tuple_implILm0EJPN4YAML12EmitterState5GroupESt14default_deleteIS2_EEE7_M_headERKS6_(ptr noundef nonnull align 8 dereferenceable(8) %0) #1 comdat align 2 {
  %2 = alloca ptr, align 8
  store ptr %0, ptr %2, align 8, !tbaa !131
  %3 = load ptr, ptr %2, align 8, !tbaa !131
  %4 = call noundef nonnull align 8 dereferenceable(8) ptr @_ZNSt10_Head_baseILm0EPN4YAML12EmitterState5GroupELb0EE7_M_headERKS4_(ptr noundef nonnull align 8 dereferenceable(8) %3) #16
  ret ptr %4
}

; Function Attrs: mustprogress nounwind uwtable
define linkonce_odr noundef nonnull align 8 dereferenceable(8) ptr @_ZSt12__get_helperILm0EPN4YAML12EmitterState5GroupEJSt14default_deleteIS2_EEERKT0_RKSt11_Tuple_implIXT_EJS6_DpT1_EE(ptr noundef nonnull align 8 dereferenceable(8) %0) #1 comdat {
  %2 = alloca ptr, align 8
  store ptr %0, ptr %2, align 8, !tbaa !131
  %3 = load ptr, ptr %2, align 8, !tbaa !131
  %4 = call noundef nonnull align 8 dereferenceable(8) ptr @_ZNSt11_Tuple_implILm0EJPN4YAML12EmitterState5GroupESt14default_deleteIS2_EEE7_M_headERKS6_(ptr noundef nonnull align 8 dereferenceable(8) %3) #16
  ret ptr %4
}

; Function Attrs: mustprogress nounwind uwtable
define linkonce_odr noundef nonnull align 8 dereferenceable(8) ptr @_ZSt3getILm0EJPN4YAML12EmitterState5GroupESt14default_deleteIS2_EEERKNSt13tuple_elementIXT_ESt5tupleIJDpT0_EEE4typeERKSA_(ptr noundef nonnull align 8 dereferenceable(8) %0) #1 comdat {
  %2 = alloca ptr, align 8
  store ptr %0, ptr %2, align 8, !tbaa !129
  %3 = load ptr, ptr %2, align 8, !tbaa !129
  %4 = call noundef nonnull align 8 dereferenceable(8) ptr @_ZSt12__get_helperILm0EPN4YAML12EmitterState5GroupEJSt14default_deleteIS2_EEERKT0_RKSt11_Tuple_implIXT_EJS6_DpT1_EE(ptr noundef nonnull align 8 dereferenceable(8) %3) #16
  ret ptr %4
}

; Function Attrs: mustprogress nounwind uwtable
define linkonce_odr noundef ptr @_ZNKSt15__uniq_ptr_implIN4YAML12EmitterState5GroupESt14default_deleteIS2_EE6_M_ptrEv(ptr noundef nonnull align 8 dereferenceable(8) %0) #1 comdat align 2 {
  %2 = alloca ptr, align 8
  store ptr %0, ptr %2, align 8, !tbaa !127
  %3 = load ptr, ptr %2, align 8
  %4 = getelementptr inbounds nuw %"class.std::__uniq_ptr_impl", ptr %3, i32 0, i32 0
  %5 = call noundef nonnull align 8 dereferenceable(8) ptr @_ZSt3getILm0EJPN4YAML12EmitterState5GroupESt14default_deleteIS2_EEERKNSt13tuple_elementIXT_ESt5tupleIJDpT0_EEE4typeERKSA_(ptr noundef nonnull align 8 dereferenceable(8) %4) #16
  %6 = load ptr, ptr %5, align 8, !tbaa !65
  ret ptr %6
}

; Function Attrs: mustprogress nounwind uwtable
define linkonce_odr void @_ZN9__gnu_cxx17__normal_iteratorIPSt10unique_ptrIN4YAML12EmitterState5GroupESt14default_deleteIS4_EESt6vectorIS7_SaIS7_EEEC2ERKS8_(ptr noundef nonnull align 8 dereferenceable(8) %0, ptr noundef nonnull align 8 dereferenceable(8) %1) unnamed_addr #1 comdat align 2 {
  %3 = alloca ptr, align 8
  %4 = alloca ptr, align 8
  store ptr %0, ptr %3, align 8, !tbaa !180
  store ptr %1, ptr %4, align 8, !tbaa !176
  %5 = load ptr, ptr %3, align 8
  %6 = getelementptr inbounds nuw %"class.__gnu_cxx::__normal_iterator.21", ptr %5, i32 0, i32 0
  %7 = load ptr, ptr %4, align 8, !tbaa !176
  %8 = load ptr, ptr %7, align 8, !tbaa !61
  store ptr %8, ptr %6, align 8, !tbaa !182
  ret void
}

; Function Attrs: mustprogress nounwind uwtable
define linkonce_odr noundef nonnull align 8 dereferenceable(8) ptr @_ZNK9__gnu_cxx17__normal_iteratorIPKSt10unique_ptrIN4YAML12EmitterState5GroupESt14default_deleteIS4_EESt6vectorIS7_SaIS7_EEE4baseEv(ptr noundef nonnull align 8 dereferenceable(8) %0) #1 comdat align 2 {
  %2 = alloca ptr, align 8
  store ptr %0, ptr %2, align 8, !tbaa !174
  %3 = load ptr, ptr %2, align 8
  %4 = getelementptr inbounds nuw %"class.__gnu_cxx::__normal_iterator.20", ptr %3, i32 0, i32 0
  ret ptr %4
}

; Function Attrs: mustprogress nounwind uwtable
define linkonce_odr void @_ZN9__gnu_cxx17__normal_iteratorIPKSt10unique_ptrIN4YAML12EmitterState5GroupESt14default_deleteIS4_EESt6vectorIS7_SaIS7_EEEC2ERKS9_(ptr noundef nonnull align 8 dereferenceable(8) %0, ptr noundef nonnull align 8 dereferenceable(8) %1) unnamed_addr #1 comdat align 2 {
  %3 = alloca ptr, align 8
  %4 = alloca ptr, align 8
  store ptr %0, ptr %3, align 8, !tbaa !174
  store ptr %1, ptr %4, align 8, !tbaa !176
  %5 = load ptr, ptr %3, align 8
  %6 = getelementptr inbounds nuw %"class.__gnu_cxx::__normal_iterator.20", ptr %5, i32 0, i32 0
  %7 = load ptr, ptr %4, align 8, !tbaa !176
  %8 = load ptr, ptr %7, align 8, !tbaa !61
  store ptr %8, ptr %6, align 8, !tbaa !178
  ret void
}

; Function Attrs: mustprogress nounwind uwtable
define linkonce_odr noundef ptr @_ZNKSt10unique_ptrIN4YAML12EmitterState5GroupESt14default_deleteIS2_EE3getEv(ptr noundef nonnull align 8 dereferenceable(8) %0) #1 comdat align 2 {
  %2 = alloca ptr, align 8
  store ptr %0, ptr %2, align 8, !tbaa !61
  %3 = load ptr, ptr %2, align 8
  %4 = getelementptr inbounds nuw %"class.std::unique_ptr", ptr %3, i32 0, i32 0
  %5 = call noundef ptr @_ZNKSt15__uniq_ptr_implIN4YAML12EmitterState5GroupESt14default_deleteIS2_EE6_M_ptrEv(ptr noundef nonnull align 8 dereferenceable(8) %4) #16
  ret ptr %5
}

; Function Attrs: mustprogress nounwind uwtable
define linkonce_odr noundef nonnull align 8 dereferenceable(8) ptr @_ZNK9__gnu_cxx17__normal_iteratorIPSt10unique_ptrIN4YAML12EmitterState5GroupESt14default_deleteIS4_EESt6vectorIS7_SaIS7_EEEdeEv(ptr noundef nonnull align 8 dereferenceable(8) %0) #1 comdat align 2 {
  %2 = alloca ptr, align 8
  store ptr %0, ptr %2, align 8, !tbaa !180
  %3 = load ptr, ptr %2, align 8
  %4 = getelementptr inbounds nuw %"class.__gnu_cxx::__normal_iterator.21", ptr %3, i32 0, i32 0
  %5 = load ptr, ptr %4, align 8, !tbaa !182
  ret ptr %5
}

; Function Attrs: mustprogress nounwind uwtable
define linkonce_odr ptr @_ZNK9__gnu_cxx17__normal_iteratorIPSt10unique_ptrIN4YAML12EmitterState5GroupESt14default_deleteIS4_EESt6vectorIS7_SaIS7_EEEmiEl(ptr noundef nonnull align 8 dereferenceable(8) %0, i64 noundef %1) #1 comdat align 2 {
  %3 = alloca %"class.__gnu_cxx::__normal_iterator.21", align 8
  %4 = alloca ptr, align 8
  %5 = alloca i64, align 8
  %6 = alloca ptr, align 8
  store ptr %0, ptr %4, align 8, !tbaa !180
  store i64 %1, ptr %5, align 8, !tbaa !30
  %7 = load ptr, ptr %4, align 8
  call void @llvm.lifetime.start.p0(i64 8, ptr %6) #16
  %8 = getelementptr inbounds nuw %"class.__gnu_cxx::__normal_iterator.21", ptr %7, i32 0, i32 0
  %9 = load ptr, ptr %8, align 8, !tbaa !182
  %10 = load i64, ptr %5, align 8, !tbaa !30
  %11 = sub i64 0, %10
  %12 = getelementptr inbounds %"class.std::unique_ptr", ptr %9, i64 %11
  store ptr %12, ptr %6, align 8, !tbaa !61
  call void @_ZN9__gnu_cxx17__normal_iteratorIPSt10unique_ptrIN4YAML12EmitterState5GroupESt14default_deleteIS4_EESt6vectorIS7_SaIS7_EEEC2ERKS8_(ptr noundef nonnull align 8 dereferenceable(8) %3, ptr noundef nonnull align 8 dereferenceable(8) %6) #16
  call void @llvm.lifetime.end.p0(i64 8, ptr %6) #16
  %13 = getelementptr inbounds nuw %"class.__gnu_cxx::__normal_iterator.21", ptr %3, i32 0, i32 0
  %14 = load ptr, ptr %13, align 8
  ret ptr %14
}

; Function Attrs: mustprogress nounwind uwtable
define linkonce_odr ptr @_ZNSt6vectorISt10unique_ptrIN4YAML12EmitterState5GroupESt14default_deleteIS3_EESaIS6_EE3endEv(ptr noundef nonnull align 8 dereferenceable(24) %0) #1 comdat align 2 {
  %2 = alloca %"class.__gnu_cxx::__normal_iterator.21", align 8
  %3 = alloca ptr, align 8
  store ptr %0, ptr %3, align 8, !tbaa !50
  %4 = load ptr, ptr %3, align 8
  %5 = getelementptr inbounds nuw %"struct.std::_Vector_base.5", ptr %4, i32 0, i32 0
  %6 = getelementptr inbounds nuw %"struct.std::_Vector_base<std::unique_ptr<YAML::EmitterState::Group>, std::allocator<std::unique_ptr<YAML::EmitterState::Group>>>::_Vector_impl_data", ptr %5, i32 0, i32 1
  call void @_ZN9__gnu_cxx17__normal_iteratorIPSt10unique_ptrIN4YAML12EmitterState5GroupESt14default_deleteIS4_EESt6vectorIS7_SaIS7_EEEC2ERKS8_(ptr noundef nonnull align 8 dereferenceable(8) %2, ptr noundef nonnull align 8 dereferenceable(8) %6) #16
  %7 = getelementptr inbounds nuw %"class.__gnu_cxx::__normal_iterator.21", ptr %2, i32 0, i32 0
  %8 = load ptr, ptr %7, align 8
  ret ptr %8
}

; Function Attrs: inlinehint mustprogress nounwind uwtable
define linkonce_odr noundef zeroext i1 @_ZN9__gnu_cxxeqIPKSt10unique_ptrIN4YAML12EmitterState5GroupESt14default_deleteIS4_EESt6vectorIS7_SaIS7_EEEEbRKNS_17__normal_iteratorIT_T0_EESI_(ptr noundef nonnull align 8 dereferenceable(8) %0, ptr noundef nonnull align 8 dereferenceable(8) %1) #8 comdat {
  %3 = alloca ptr, align 8
  %4 = alloca ptr, align 8
  store ptr %0, ptr %3, align 8, !tbaa !174
  store ptr %1, ptr %4, align 8, !tbaa !174
  %5 = load ptr, ptr %3, align 8, !tbaa !174
  %6 = call noundef nonnull align 8 dereferenceable(8) ptr @_ZNK9__gnu_cxx17__normal_iteratorIPKSt10unique_ptrIN4YAML12EmitterState5GroupESt14default_deleteIS4_EESt6vectorIS7_SaIS7_EEE4baseEv(ptr noundef nonnull align 8 dereferenceable(8) %5) #16
  %7 = load ptr, ptr %6, align 8, !tbaa !61
  %8 = load ptr, ptr %4, align 8, !tbaa !174
  %9 = call noundef nonnull align 8 dereferenceable(8) ptr @_ZNK9__gnu_cxx17__normal_iteratorIPKSt10unique_ptrIN4YAML12EmitterState5GroupESt14default_deleteIS4_EESt6vectorIS7_SaIS7_EEE4baseEv(ptr noundef nonnull align 8 dereferenceable(8) %8) #16
  %10 = load ptr, ptr %9, align 8, !tbaa !61
  %11 = icmp eq ptr %7, %10
  ret i1 %11
}

; Function Attrs: mustprogress nounwind uwtable
define linkonce_odr ptr @_ZNKSt6vectorISt10unique_ptrIN4YAML12EmitterState5GroupESt14default_deleteIS3_EESaIS6_EE3endEv(ptr noundef nonnull align 8 dereferenceable(24) %0) #1 comdat align 2 {
  %2 = alloca %"class.__gnu_cxx::__normal_iterator.20", align 8
  %3 = alloca ptr, align 8
  store ptr %0, ptr %3, align 8, !tbaa !50
  %4 = load ptr, ptr %3, align 8
  %5 = getelementptr inbounds nuw %"struct.std::_Vector_base.5", ptr %4, i32 0, i32 0
  %6 = getelementptr inbounds nuw %"struct.std::_Vector_base<std::unique_ptr<YAML::EmitterState::Group>, std::allocator<std::unique_ptr<YAML::EmitterState::Group>>>::_Vector_impl_data", ptr %5, i32 0, i32 1
  call void @_ZN9__gnu_cxx17__normal_iteratorIPKSt10unique_ptrIN4YAML12EmitterState5GroupESt14default_deleteIS4_EESt6vectorIS7_SaIS7_EEEC2ERKS9_(ptr noundef nonnull align 8 dereferenceable(8) %2, ptr noundef nonnull align 8 dereferenceable(8) %6) #16
  %7 = getelementptr inbounds nuw %"class.__gnu_cxx::__normal_iterator.20", ptr %2, i32 0, i32 0
  %8 = load ptr, ptr %7, align 8
  ret ptr %8
}

; Function Attrs: mustprogress nounwind uwtable
define linkonce_odr ptr @_ZNKSt6vectorISt10unique_ptrIN4YAML12EmitterState5GroupESt14default_deleteIS3_EESaIS6_EE5beginEv(ptr noundef nonnull align 8 dereferenceable(24) %0) #1 comdat align 2 {
  %2 = alloca %"class.__gnu_cxx::__normal_iterator.20", align 8
  %3 = alloca ptr, align 8
  store ptr %0, ptr %3, align 8, !tbaa !50
  %4 = load ptr, ptr %3, align 8
  %5 = getelementptr inbounds nuw %"struct.std::_Vector_base.5", ptr %4, i32 0, i32 0
  %6 = getelementptr inbounds nuw %"struct.std::_Vector_base<std::unique_ptr<YAML::EmitterState::Group>, std::allocator<std::unique_ptr<YAML::EmitterState::Group>>>::_Vector_impl_data", ptr %5, i32 0, i32 0
  call void @_ZN9__gnu_cxx17__normal_iteratorIPKSt10unique_ptrIN4YAML12EmitterState5GroupESt14default_deleteIS4_EESt6vectorIS7_SaIS7_EEEC2ERKS9_(ptr noundef nonnull align 8 dereferenceable(8) %2, ptr noundef nonnull align 8 dereferenceable(8) %6) #16
  %7 = getelementptr inbounds nuw %"class.__gnu_cxx::__normal_iterator.20", ptr %2, i32 0, i32 0
  %8 = load ptr, ptr %7, align 8
  ret ptr %8
}

; Function Attrs: mustprogress nounwind uwtable
define linkonce_odr noundef ptr @_ZNKSt10unique_ptrIN4YAML12EmitterState5GroupESt14default_deleteIS2_EEptEv(ptr noundef nonnull align 8 dereferenceable(8) %0) #1 comdat align 2 {
  %2 = alloca ptr, align 8
  store ptr %0, ptr %2, align 8, !tbaa !61
  %3 = load ptr, ptr %2, align 8
  %4 = call noundef ptr @_ZNKSt10unique_ptrIN4YAML12EmitterState5GroupESt14default_deleteIS2_EE3getEv(ptr noundef nonnull align 8 dereferenceable(8) %3) #16
  ret ptr %4
}

; Function Attrs: mustprogress nounwind uwtable
define linkonce_odr noundef nonnull align 8 dereferenceable(8) ptr @_ZNSt6vectorISt10unique_ptrIN4YAML12EmitterState5GroupESt14default_deleteIS3_EESaIS6_EE4backEv(ptr noundef nonnull align 8 dereferenceable(24) %0) #1 comdat align 2 {
  %2 = alloca ptr, align 8
  %3 = alloca %"class.__gnu_cxx::__normal_iterator.21", align 8
  %4 = alloca %"class.__gnu_cxx::__normal_iterator.21", align 8
  store ptr %0, ptr %2, align 8, !tbaa !50
  %5 = load ptr, ptr %2, align 8
  call void @llvm.lifetime.start.p0(i64 8, ptr %3) #16
  call void @llvm.lifetime.start.p0(i64 8, ptr %4) #16
  %6 = call ptr @_ZNSt6vectorISt10unique_ptrIN4YAML12EmitterState5GroupESt14default_deleteIS3_EESaIS6_EE3endEv(ptr noundef nonnull align 8 dereferenceable(24) %5) #16
  %7 = getelementptr inbounds nuw %"class.__gnu_cxx::__normal_iterator.21", ptr %4, i32 0, i32 0
  store ptr %6, ptr %7, align 8
  %8 = call ptr @_ZNK9__gnu_cxx17__normal_iteratorIPSt10unique_ptrIN4YAML12EmitterState5GroupESt14default_deleteIS4_EESt6vectorIS7_SaIS7_EEEmiEl(ptr noundef nonnull align 8 dereferenceable(8) %4, i64 noundef 1) #16
  %9 = getelementptr inbounds nuw %"class.__gnu_cxx::__normal_iterator.21", ptr %3, i32 0, i32 0
  store ptr %8, ptr %9, align 8
  %10 = call noundef nonnull align 8 dereferenceable(8) ptr @_ZNK9__gnu_cxx17__normal_iteratorIPSt10unique_ptrIN4YAML12EmitterState5GroupESt14default_deleteIS4_EESt6vectorIS7_SaIS7_EEEdeEv(ptr noundef nonnull align 8 dereferenceable(8) %3) #16
  call void @llvm.lifetime.end.p0(i64 8, ptr %4) #16
  call void @llvm.lifetime.end.p0(i64 8, ptr %3) #16
  ret ptr %10
}

; Function Attrs: mustprogress nounwind uwtable
define linkonce_odr noundef zeroext i1 @_ZNKSt6vectorISt10unique_ptrIN4YAML12EmitterState5GroupESt14default_deleteIS3_EESaIS6_EE5emptyEv(ptr noundef nonnull align 8 dereferenceable(24) %0) #1 comdat align 2 {
  %2 = alloca ptr, align 8
  %3 = alloca %"class.__gnu_cxx::__normal_iterator.20", align 8
  %4 = alloca %"class.__gnu_cxx::__normal_iterator.20", align 8
  store ptr %0, ptr %2, align 8, !tbaa !50
  %5 = load ptr, ptr %2, align 8
  call void @llvm.lifetime.start.p0(i64 8, ptr %3) #16
  %6 = call ptr @_ZNKSt6vectorISt10unique_ptrIN4YAML12EmitterState5GroupESt14default_deleteIS3_EESaIS6_EE5beginEv(ptr noundef nonnull align 8 dereferenceable(24) %5) #16
  %7 = getelementptr inbounds nuw %"class.__gnu_cxx::__normal_iterator.20", ptr %3, i32 0, i32 0
  store ptr %6, ptr %7, align 8
  call void @llvm.lifetime.start.p0(i64 8, ptr %4) #16
  %8 = call ptr @_ZNKSt6vectorISt10unique_ptrIN4YAML12EmitterState5GroupESt14default_deleteIS3_EESaIS6_EE3endEv(ptr noundef nonnull align 8 dereferenceable(24) %5) #16
  %9 = getelementptr inbounds nuw %"class.__gnu_cxx::__normal_iterator.20", ptr %4, i32 0, i32 0
  store ptr %8, ptr %9, align 8
  %10 = call noundef zeroext i1 @_ZN9__gnu_cxxeqIPKSt10unique_ptrIN4YAML12EmitterState5GroupESt14default_deleteIS4_EESt6vectorIS7_SaIS7_EEEEbRKNS_17__normal_iteratorIT_T0_EESI_(ptr noundef nonnull align 8 dereferenceable(8) %3, ptr noundef nonnull align 8 dereferenceable(8) %4) #16
  call void @llvm.lifetime.end.p0(i64 8, ptr %4) #16
  call void @llvm.lifetime.end.p0(i64 8, ptr %3) #16
  ret i1 %10
}

; Function Attrs: mustprogress nounwind uwtable
define void @_ZN4YAML12EmitterState10SetLongKeyEv(ptr noundef nonnull align 8 dereferenceable(224) %0) #1 align 2 {
  %2 = alloca ptr, align 8
  store ptr %0, ptr %2, align 8, !tbaa !3
  %3 = load ptr, ptr %2, align 8
  %4 = getelementptr inbounds nuw %"class.YAML::EmitterState", ptr %3, i32 0, i32 19
  %5 = call noundef zeroext i1 @_ZNKSt6vectorISt10unique_ptrIN4YAML12EmitterState5GroupESt14default_deleteIS3_EESaIS6_EE5emptyEv(ptr noundef nonnull align 8 dereferenceable(24) %4) #16
  br i1 %5, label %6, label %7

6:                                                ; preds = %1
  br label %12

7:                                                ; preds = %1
  %8 = getelementptr inbounds nuw %"class.YAML::EmitterState", ptr %3, i32 0, i32 19
  %9 = call noundef nonnull align 8 dereferenceable(8) ptr @_ZNSt6vectorISt10unique_ptrIN4YAML12EmitterState5GroupESt14default_deleteIS3_EESaIS6_EE4backEv(ptr noundef nonnull align 8 dereferenceable(24) %8) #16
  %10 = call noundef ptr @_ZNKSt10unique_ptrIN4YAML12EmitterState5GroupESt14default_deleteIS2_EEptEv(ptr noundef nonnull align 8 dereferenceable(8) %9) #16
  %11 = getelementptr inbounds nuw %"struct.YAML::EmitterState::Group", ptr %10, i32 0, i32 4
  store i8 1, ptr %11, align 8, !tbaa !58
  br label %12

12:                                               ; preds = %7, %6
  ret void
}