; Function Attrs: mustprogress nofree norecurse nosync nounwind willreturn memory(readwrite, inaccessiblemem: none) uwtable
define void @_ZN4YAML12EmitterState10SetLongKeyEv(ptr noundef nonnull readonly align 8 captures(none) dereferenceable(224) %0) local_unnamed_addr #5 align 2 {
  %2 = getelementptr inbounds nuw i8, ptr %0, i64 176
  %3 = load ptr, ptr %2, align 8, !tbaa !97
  %4 = getelementptr inbounds nuw i8, ptr %0, i64 184
  %5 = load ptr, ptr %4, align 8, !tbaa !97
  %6 = icmp eq ptr %3, %5
  br i1 %6, label %11, label %7

7:                                                ; preds = %1
  %8 = getelementptr inbounds i8, ptr %5, i64 -8
  %9 = load ptr, ptr %8, align 8, !tbaa !89
  %10 = getelementptr inbounds nuw i8, ptr %9, i64 24
  store i8 1, ptr %10, align 8, !tbaa !98
  br label %11

11:                                               ; preds = %1, %7
  ret void
}